Certificate:
    Data:
        Version: 3 (0x2)
        Serial Number: 215694 (0x34a8e)
    Signature Algorithm: sha256WithRSAEncryption
        Issuer: CN=web-platform-tests
        Validity
            Not Before: Aug  4 06:35:20 2017 GMT
            Not After : Sep  3 06:35:20 2017 GMT
        Subject: CN=web-platform-tests
        Subject Public Key Info:
            Public Key Algorithm: rsaEncryption
                Public-Key: (2048 bit)
                Modulus:
                    00:d5:61:76:f7:3e:a1:f4:e3:6e:a8:87:79:84:b3:
                    35:a7:df:63:44:f6:a4:85:86:bb:12:f5:00:3d:50:
                    59:9a:df:76:6c:f8:74:f2:39:fb:84:bd:91:5b:1f:
                    90:e0:cd:f5:ff:7a:16:35:e2:a5:a2:b4:c7:8e:de:
                    fa:7d:d5:2d:85:07:d2:e9:52:2a:70:f3:62:ac:68:
                    82:4b:03:9c:d6:66:57:41:38:6e:d8:b6:cd:18:f8:
                    2f:63:30:08:69:fb:74:34:b5:21:a2:25:f8:7d:01:
                    bf:e1:96:0f:5f:7b:2f:f3:06:59:44:55:59:97:28:
                    f6:10:4f:bf:e5:1f:d9:f4:83:c2:5a:a0:8b:74:9b:
                    85:8e:a2:4f:4a:c8:ce:9d:d2:3b:22:6e:33:af:49:
                    ab:42:e5:fd:ae:90:23:5a:41:33:4e:8f:cc:f9:f4:
                    4e:25:3c:1b:60:08:c1:5f:58:a0:da:37:f1:73:0e:
                    45:0d:11:c8:0f:07:68:a9:c0:59:3d:3a:c5:b5:17:
                    51:3f:57:78:8a:0c:50:0d:7c:d4:35:0f:13:bc:9e:
                    12:86:1a:be:c8:a2:e6:53:29:0e:f1:60:e1:72:89:
                    06:02:0f:dc:7e:57:6c:9b:06:f3:51:25:ce:7a:c1:
                    60:27:56:c9:27:e2:47:ff:6e:31:c2:ab:4c:ec:63:
                    c9:af
                Exponent: 65537 (0x10001)
        X509v3 extensions:
            X509v3 Basic Constraints: 
                CA:TRUE
            X509v3 Subject Key Identifier: 
                DA:A3:2F:F4:09:10:47:47:42:53:17:1A:BE:DE:3A:49:62:2C:1F:36
            X509v3 Authority Key Identifier: 
                keyid:DA:A3:2F:F4:09:10:47:47:42:53:17:1A:BE:DE:3A:49:62:2C:1F:36
                DirName:/CN=web-platform-tests
                serial:03:4A:8E

            X509v3 Key Usage: 
                Certificate Sign
            X509v3 Extended Key Usage: 
                TLS Web Server Authentication
    Signature Algorithm: sha256WithRSAEncryption
         84:28:ea:97:27:1d:f5:bf:47:2f:9e:b0:23:36:32:90:27:4b:
         9d:a3:d8:2a:a4:d5:6b:d4:c5:b7:19:02:ce:87:50:9f:84:4b:
         fd:be:eb:f6:aa:95:e4:88:0e:d8:28:4d:0e:44:77:60:8a:f6:
         86:64:1a:49:4c:e6:86:37:9f:35:9e:7e:98:10:ca:67:87:fd:
         7d:f0:b1:23:4d:31:50:1a:f6:22:af:6e:71:6f:db:4e:48:c2:
         aa:58:70:b4:16:55:90:ec:de:1f:17:e7:da:a5:2f:39:54:e5:
         ce:76:01:68:37:16:b1:72:1a:ff:ea:07:94:f0:52:78:57:28:
         d3:a1:e3:d3:eb:ee:a8:bb:26:d4:be:72:78:87:51:ec:c4:83:
         be:d4:79:07:42:bf:be:0c:ed:ce:90:04:04:eb:86:38:16:dd:
         58:26:ac:3e:88:01:f8:af:5b:ee:bc:08:f8:74:d3:be:2b:30:
         3a:a5:06:e2:b6:a1:01:6a:d7:05:91:c1:06:f2:0d:43:f3:89:
         09:c6:38:fb:01:93:51:58:49:bc:a3:1e:ee:6e:35:96:28:13:
         c6:e9:48:86:af:38:e5:d3:c8:bd:82:9c:e4:b1:7a:25:3d:ed:
         41:c0:f6:c8:c8:d2:b1:f2:70:3e:c3:e7:bc:3e:0f:48:f5:d1:
         73:33:51:9e
-----BEGIN CERTIFICATE-----
MIIDUzCCAjugAwIBAgIDA0qOMA0GCSqGSIb3DQEBCwUAMB0xGzAZBgNVBAMMEndl
Yi1wbGF0Zm9ybS10ZXN0czAeFw0xNzA4MDQwNjM1MjBaFw0xNzA5MDMwNjM1MjBa
MB0xGzAZBgNVBAMMEndlYi1wbGF0Zm9ybS10ZXN0czCCASIwDQYJKoZIhvcNAQEB
BQADggEPADCCAQoCggEBANVhdvc+ofTjbqiHeYSzNaffY0T2pIWGuxL1AD1QWZrf
dmz4dPI5+4S9kVsfkODN9f96FjXipaK0x47e+n3VLYUH0ulSKnDzYqxogksDnNZm
V0E4bti2zRj4L2MwCGn7dDS1IaIl+H0Bv+GWD197L/MGWURVWZco9hBPv+Uf2fSD
wlqgi3SbhY6iT0rIzp3SOyJuM69Jq0Ll/a6QI1pBM06PzPn0TiU8G2AIwV9YoNo3
8XMORQ0RyA8HaKnAWT06xbUXUT9XeIoMUA181DUPE7yeEoYavsii5lMpDvFg4XKJ
BgIP3H5XbJsG81ElznrBYCdWySfiR/9uMcKrTOxjya8CAwEAAaOBmzCBmDAMBgNV
HRMEBTADAQH/MB0GA1UdDgQWBBTaoy/0CRBHR0JTFxq+3jpJYiwfNjBHBgNVHSME
QDA+gBTaoy/0CRBHR0JTFxq+3jpJYiwfNqEhpB8wHTEbMBkGA1UEAwwSd2ViLXBs
YXRmb3JtLXRlc3RzggMDSo4wCwYDVR0PBAQDAgIEMBMGA1UdJQQMMAoGCCsGAQUF
BwMBMA0GCSqGSIb3DQEBCwUAA4IBAQCEKOqXJx31v0cvnrAjNjKQJ0udo9gqpNVr
1MW3GQLOh1CfhEv9vuv2qpXkiA7YKE0ORHdgivaGZBpJTOaGN581nn6YEMpnh/19
8LEjTTFQGvYir25xb9tOSMKqWHC0FlWQ7N4fF+fapS85VOXOdgFoNxaxchr/6geU
8FJ4VyjToePT6+6ouybUvnJ4h1HsxIO+1HkHQr++DO3OkAQE64Y4Ft1YJqw+iAH4
r1vuvAj4dNO+KzA6pQbitqEBatcFkcEG8g1D84kJxjj7AZNRWEm8ox7ubjWWKBPG
6UiGrzjl08i9gpzksXolPe1BwPbIyNKx8nA+w+e8Pg9I9dFzM1Ge
-----END CERTIFICATE-----
