Certificate:
    Data:
        Version: 3 (0x2)
        Serial Number: 368505 (0x59f79)
    Signature Algorithm: sha256WithRSAEncryption
        Issuer: CN=web-platform-tests
        Validity
            Not Before: Aug  4 06:35:53 2017 GMT
            Not After : Sep  3 06:35:53 2017 GMT
        Subject: CN=web-platform-tests
        Subject Public Key Info:
            Public Key Algorithm: rsaEncryption
                Public-Key: (2048 bit)
                Modulus:
                    00:c5:e6:5b:ab:7a:c6:43:01:02:df:f0:10:fb:c7:
                    9b:c8:8a:9b:e5:04:33:d4:30:57:49:25:f3:7b:d5:
                    24:fa:54:45:59:24:1f:ab:86:4e:63:7e:4d:80:eb:
                    8a:1a:81:a5:77:c2:8e:96:ca:c5:a8:99:eb:62:fa:
                    16:e1:b9:88:5d:90:a2:69:64:ad:7a:d0:82:59:e5:
                    b1:dc:ff:62:07:f2:04:86:ef:5c:33:9c:c3:8d:36:
                    27:b9:00:83:02:c5:9d:6e:53:9f:0d:52:c1:f8:c9:
                    7e:64:22:fb:3a:ba:de:ec:f5:5c:4c:0e:46:40:45:
                    1f:3c:54:a5:c9:b1:9b:70:e0:aa:fe:c6:e2:d1:49:
                    8e:92:9e:f5:de:84:71:78:ec:41:53:b7:e7:42:11:
                    2f:bd:91:12:f8:46:ea:87:ca:48:8e:60:79:4a:e7:
                    c2:68:32:fb:21:8d:79:90:2b:1a:39:e3:be:1c:43:
                    33:52:00:bb:88:45:68:f9:eb:16:e0:1d:ba:51:d7:
                    28:c1:f2:f2:a6:c0:27:c2:4a:b5:54:df:29:4e:cc:
                    85:80:7b:c0:fa:69:8e:7d:3d:d7:a2:cd:07:1f:f9:
                    76:2e:de:9b:d0:38:b0:54:df:fa:2a:27:d9:72:46:
                    6e:fe:67:e5:6a:6b:96:a6:98:a7:dd:af:a5:7e:7f:
                    57:89
                Exponent: 65537 (0x10001)
        X509v3 extensions:
            X509v3 Basic Constraints: 
                CA:TRUE
            X509v3 Subject Key Identifier: 
                45:56:10:47:51:67:DE:93:94:A7:05:F1:E2:1E:96:81:AF:A2:B8:3A
            X509v3 Authority Key Identifier: 
                keyid:45:56:10:47:51:67:DE:93:94:A7:05:F1:E2:1E:96:81:AF:A2:B8:3A
                DirName:/CN=web-platform-tests
                serial:05:9F:79

            X509v3 Key Usage: 
                Certificate Sign
            X509v3 Extended Key Usage: 
                TLS Web Server Authentication
    Signature Algorithm: sha256WithRSAEncryption
         21:15:fe:5b:99:82:6c:b3:45:c0:da:2a:af:c7:43:0b:0d:4f:
         71:39:d1:60:a2:c7:c8:a2:bc:f1:45:c7:5e:f7:c9:cb:af:33:
         7d:90:36:5d:c3:65:bf:a0:db:29:da:45:1a:8c:68:9e:cc:05:
         75:02:78:e5:bb:a1:b3:46:14:88:af:2b:1d:7e:d9:29:ed:00:
         f5:d9:38:54:5c:ba:db:29:1c:83:1f:85:a6:40:6b:87:4b:7b:
         f0:ff:b5:97:96:5a:c1:6e:23:bf:77:f6:7d:ea:de:9f:34:b0:
         e8:6f:9c:60:8d:5a:58:e0:d9:9c:f0:20:ad:52:27:5f:c4:aa:
         7d:89:5f:13:f6:70:20:05:0b:79:37:8f:a8:9d:f3:f5:1e:8b:
         5b:7d:f6:92:8f:0e:bd:cc:84:54:9c:72:32:2b:38:31:09:48:
         51:7b:46:d1:59:ab:3e:b8:c4:90:3c:5c:16:9e:05:1d:a5:d9:
         88:cf:70:87:72:20:50:90:ed:db:c6:44:83:65:d2:a4:8f:ad:
         82:35:74:e1:e5:9c:26:d5:44:88:2b:dc:f9:52:be:1b:e6:b5:
         81:54:27:42:cf:78:b9:65:51:65:63:a7:24:dd:8a:d0:44:4e:
         be:ff:8b:4f:b6:5a:8d:9c:e0:02:d5:29:a2:2c:1c:2b:a8:0f:
         29:4b:9b:c9
-----BEGIN CERTIFICATE-----
MIIDUzCCAjugAwIBAgIDBZ95MA0GCSqGSIb3DQEBCwUAMB0xGzAZBgNVBAMMEndl
Yi1wbGF0Zm9ybS10ZXN0czAeFw0xNzA4MDQwNjM1NTNaFw0xNzA5MDMwNjM1NTNa
MB0xGzAZBgNVBAMMEndlYi1wbGF0Zm9ybS10ZXN0czCCASIwDQYJKoZIhvcNAQEB
BQADggEPADCCAQoCggEBAMXmW6t6xkMBAt/wEPvHm8iKm+UEM9QwV0kl83vVJPpU
RVkkH6uGTmN+TYDrihqBpXfCjpbKxaiZ62L6FuG5iF2QomlkrXrQglnlsdz/Ygfy
BIbvXDOcw402J7kAgwLFnW5Tnw1SwfjJfmQi+zq63uz1XEwORkBFHzxUpcmxm3Dg
qv7G4tFJjpKe9d6EcXjsQVO350IRL72REvhG6ofKSI5geUrnwmgy+yGNeZArGjnj
vhxDM1IAu4hFaPnrFuAdulHXKMHy8qbAJ8JKtVTfKU7MhYB7wPppjn0916LNBx/5
di7em9A4sFTf+ion2XJGbv5n5WprlqaYp92vpX5/V4kCAwEAAaOBmzCBmDAMBgNV
HRMEBTADAQH/MB0GA1UdDgQWBBRFVhBHUWfek5SnBfHiHpaBr6K4OjBHBgNVHSME
QDA+gBRFVhBHUWfek5SnBfHiHpaBr6K4OqEhpB8wHTEbMBkGA1UEAwwSd2ViLXBs
YXRmb3JtLXRlc3RzggMFn3kwCwYDVR0PBAQDAgIEMBMGA1UdJQQMMAoGCCsGAQUF
BwMBMA0GCSqGSIb3DQEBCwUAA4IBAQAhFf5bmYJss0XA2iqvx0MLDU9xOdFgosfI
orzxRcde98nLrzN9kDZdw2W/oNsp2kUajGiezAV1Anjlu6GzRhSIrysdftkp7QD1
2ThUXLrbKRyDH4WmQGuHS3vw/7WXllrBbiO/d/Z96t6fNLDob5xgjVpY4Nmc8CCt
UidfxKp9iV8T9nAgBQt5N4+onfP1HotbffaSjw69zIRUnHIyKzgxCUhRe0bRWas+
uMSQPFwWngUdpdmIz3CHciBQkO3bxkSDZdKkj62CNXTh5Zwm1USIK9z5Ur4b5rWB
VCdCz3i5ZVFlY6ck3YrQRE6+/4tPtlqNnOAC1SmiLBwrqA8pS5vJ
-----END CERTIFICATE-----
