Certificate:
    Data:
        Version: 3 (0x2)
        Serial Number: 927798 (0xe2836)
    Signature Algorithm: sha256WithRSAEncryption
        Issuer: CN=web-platform-tests
        Validity
            Not Before: Aug  4 04:57:31 2017 GMT
            Not After : Sep  3 04:57:31 2017 GMT
        Subject: CN=web-platform-tests
        Subject Public Key Info:
            Public Key Algorithm: rsaEncryption
                Public-Key: (2048 bit)
                Modulus:
                    00:d7:56:fb:05:c3:f6:f0:9f:f2:a5:c5:8e:41:ef:
                    7a:26:6e:ed:4d:86:2d:23:27:90:9e:33:be:25:9c:
                    c4:ac:f1:af:1a:a6:f0:28:e6:7d:6e:a3:9b:c3:be:
                    4d:d1:47:b4:66:49:7a:41:00:bd:a7:6e:b2:4a:8f:
                    8b:d3:36:06:3d:4a:0c:f1:66:6b:93:e6:ef:f7:94:
                    32:d5:bc:66:b1:c8:b3:e4:39:4a:90:ed:ac:76:43:
                    3c:28:55:1e:f2:0f:98:dc:b7:97:e6:75:f5:31:94:
                    25:f4:57:56:d9:ae:2b:03:e6:21:a7:cc:9c:7a:51:
                    76:55:16:c5:af:0c:7d:9f:0c:b2:4d:71:5c:3c:d3:
                    f7:00:e7:55:d4:f5:f3:e5:7b:43:55:ba:96:11:ba:
                    00:ad:87:a9:ba:e9:8d:ba:79:2f:42:4e:5a:0e:d3:
                    a5:9e:5a:3e:fe:f0:3f:f1:92:30:d7:77:2d:8f:63:
                    99:08:04:5c:39:00:f0:76:19:1f:b2:5a:fb:d4:0a:
                    18:3f:11:c1:3e:92:e5:86:69:75:29:b8:da:83:90:
                    fe:bd:f7:b6:94:c6:75:19:f9:92:62:cb:1a:e2:b4:
                    97:36:b5:e2:1a:cd:1c:86:bd:c6:0c:59:a5:53:0d:
                    13:a9:7c:00:4f:80:ab:73:58:b7:89:58:06:9b:49:
                    27:19
                Exponent: 65537 (0x10001)
        X509v3 extensions:
            X509v3 Basic Constraints: 
                CA:TRUE
            X509v3 Subject Key Identifier: 
                3C:43:D2:CA:7F:B4:10:D6:C2:A7:9F:D5:07:56:9D:DB:82:A6:44:AD
            X509v3 Authority Key Identifier: 
                keyid:3C:43:D2:CA:7F:B4:10:D6:C2:A7:9F:D5:07:56:9D:DB:82:A6:44:AD
                DirName:/CN=web-platform-tests
                serial:0E:28:36

            X509v3 Key Usage: 
                Certificate Sign
            X509v3 Extended Key Usage: 
                TLS Web Server Authentication
    Signature Algorithm: sha256WithRSAEncryption
         02:98:3f:f2:57:2c:12:54:ed:0d:e0:21:e5:e3:0f:12:21:35:
         e3:66:16:4c:d7:b9:5c:28:3e:77:4d:b1:3b:89:9f:5a:40:9d:
         37:3c:5c:38:83:4e:9b:66:47:19:b9:8d:ad:14:50:92:4c:5a:
         d2:80:46:7d:98:c6:88:9d:f5:40:39:92:8e:de:0f:60:9b:f6:
         7e:d7:9d:db:9d:1f:f1:c7:ed:7f:0e:fe:36:bc:0a:c7:3f:2b:
         66:04:e0:07:7e:29:f6:73:69:ad:90:1c:63:50:43:c1:5d:a8:
         ba:e8:e9:ec:99:36:50:62:dd:cc:99:17:c1:3c:c6:ad:8f:34:
         5e:e0:a4:b3:e4:dc:78:f4:7b:63:43:c6:01:58:b5:2c:93:89:
         7c:a0:d7:d2:f1:cc:0c:cd:ef:64:22:4a:3c:0b:c9:1a:a4:57:
         97:1a:a9:4f:29:cb:74:32:9f:ed:a2:64:17:3f:44:7d:bd:2d:
         5e:43:b9:d1:db:99:21:58:fd:d9:30:31:f2:38:06:2d:8b:2c:
         6f:b4:26:87:27:57:19:5a:88:94:25:e3:fa:17:a4:f2:12:09:
         80:2b:02:a9:f7:ab:5f:61:c7:d4:30:03:e6:68:01:b9:6c:e2:
         05:4c:e1:42:99:cc:72:f7:5a:e0:eb:93:28:0e:e2:27:36:1b:
         1c:2c:19:8f
-----BEGIN CERTIFICATE-----
MIIDUzCCAjugAwIBAgIDDig2MA0GCSqGSIb3DQEBCwUAMB0xGzAZBgNVBAMMEndl
Yi1wbGF0Zm9ybS10ZXN0czAeFw0xNzA4MDQwNDU3MzFaFw0xNzA5MDMwNDU3MzFa
MB0xGzAZBgNVBAMMEndlYi1wbGF0Zm9ybS10ZXN0czCCASIwDQYJKoZIhvcNAQEB
BQADggEPADCCAQoCggEBANdW+wXD9vCf8qXFjkHveiZu7U2GLSMnkJ4zviWcxKzx
rxqm8CjmfW6jm8O+TdFHtGZJekEAvaduskqPi9M2Bj1KDPFma5Pm7/eUMtW8ZrHI
s+Q5SpDtrHZDPChVHvIPmNy3l+Z19TGUJfRXVtmuKwPmIafMnHpRdlUWxa8MfZ8M
sk1xXDzT9wDnVdT18+V7Q1W6lhG6AK2Hqbrpjbp5L0JOWg7TpZ5aPv7wP/GSMNd3
LY9jmQgEXDkA8HYZH7Ja+9QKGD8RwT6S5YZpdSm42oOQ/r33tpTGdRn5kmLLGuK0
lza14hrNHIa9xgxZpVMNE6l8AE+Aq3NYt4lYBptJJxkCAwEAAaOBmzCBmDAMBgNV
HRMEBTADAQH/MB0GA1UdDgQWBBQ8Q9LKf7QQ1sKnn9UHVp3bgqZErTBHBgNVHSME
QDA+gBQ8Q9LKf7QQ1sKnn9UHVp3bgqZEraEhpB8wHTEbMBkGA1UEAwwSd2ViLXBs
YXRmb3JtLXRlc3RzggMOKDYwCwYDVR0PBAQDAgIEMBMGA1UdJQQMMAoGCCsGAQUF
BwMBMA0GCSqGSIb3DQEBCwUAA4IBAQACmD/yVywSVO0N4CHl4w8SITXjZhZM17lc
KD53TbE7iZ9aQJ03PFw4g06bZkcZuY2tFFCSTFrSgEZ9mMaInfVAOZKO3g9gm/Z+
153bnR/xx+1/Dv42vArHPytmBOAHfin2c2mtkBxjUEPBXai66OnsmTZQYt3MmRfB
PMatjzRe4KSz5Nx49HtjQ8YBWLUsk4l8oNfS8cwMze9kIko8C8kapFeXGqlPKct0
Mp/tomQXP0R9vS1eQ7nR25khWP3ZMDHyOAYtiyxvtCaHJ1cZWoiUJeP6F6TyEgmA
KwKp96tfYcfUMAPmaAG5bOIFTOFCmcxy91rg65MoDuInNhscLBmP
-----END CERTIFICATE-----
