Certificate:
    Data:
        Version: 3 (0x2)
        Serial Number: 927799 (0xe2837)
    Signature Algorithm: sha256WithRSAEncryption
        Issuer: CN=web-platform-tests
        Validity
            Not Before: Aug  4 04:57:31 2017 GMT
            Not After : Sep  3 04:57:31 2017 GMT
        Subject: CN=web-platform.test
        Subject Public Key Info:
            Public Key Algorithm: rsaEncryption
                Public-Key: (2048 bit)
                Modulus:
                    00:9f:8e:96:b6:83:35:fd:2a:11:9e:6c:1a:d2:e0:
                    0e:7c:60:a4:96:a0:b1:4a:72:bb:14:ba:a9:b8:fd:
                    3e:b6:3d:1a:bd:3f:ed:cf:9e:51:f9:da:ea:60:ae:
                    d3:64:bb:f8:6d:5b:71:fe:82:b2:09:86:b2:88:a6:
                    17:62:91:e9:d3:76:83:d2:41:34:0e:d0:38:27:0d:
                    a4:16:50:c0:a8:d0:88:e3:7e:3f:33:e0:33:5d:3e:
                    02:ba:31:d9:74:f0:f5:04:91:8c:6b:bd:5f:73:62:
                    a6:da:b1:23:ba:d9:e6:6c:64:86:3d:21:1c:66:75:
                    3d:fb:ff:2a:96:34:94:b2:ff:e2:e5:3a:2f:76:a4:
                    fa:7a:a4:a1:4c:0e:34:7b:67:d6:36:e7:d8:ae:f6:
                    7e:25:56:86:f1:3c:c0:5f:ec:79:5e:bd:3c:22:cf:
                    04:d1:41:4b:39:38:73:4a:06:89:6c:22:85:ac:cb:
                    b8:3f:7e:f2:b0:ed:5b:79:72:89:b3:a4:0c:89:56:
                    65:77:24:8e:07:fe:2b:16:81:42:55:45:52:12:9e:
                    a9:c8:99:39:be:bd:6a:b8:9e:97:3e:e3:b2:10:3c:
                    05:50:ff:38:f7:e1:4e:1c:5f:87:0b:25:d5:65:81:
                    4d:4b:e6:21:53:83:5e:82:26:14:73:4c:ff:92:14:
                    bb:3b
                Exponent: 65537 (0x10001)
        X509v3 extensions:
            X509v3 Basic Constraints: 
                CA:FALSE
            X509v3 Subject Key Identifier: 
                A8:2F:78:22:89:13:7B:1F:02:A1:4F:22:11:9E:55:DC:FF:5E:D3:CA
            X509v3 Authority Key Identifier: 
                keyid:3C:43:D2:CA:7F:B4:10:D6:C2:A7:9F:D5:07:56:9D:DB:82:A6:44:AD

            X509v3 Key Usage: 
                Digital Signature, Non Repudiation, Key Encipherment
            X509v3 Extended Key Usage: 
                TLS Web Server Authentication
            X509v3 Subject Alternative Name: 
                DNS:web-platform.test, DNS:www.web-platform.test, DNS:xn--n8j6ds53lwwkrqhv28a.web-platform.test, DNS:xn--lve-6lad.web-platform.test, DNS:www1.web-platform.test, DNS:www2.web-platform.test
    Signature Algorithm: sha256WithRSAEncryption
         6b:9b:a5:bf:fe:42:08:f4:86:1a:4e:c8:0b:ff:f9:4d:b1:a3:
         e2:26:fe:42:84:a4:8b:f5:15:f7:91:1e:80:23:a0:ac:f5:b1:
         7e:f8:e5:fe:73:67:51:14:b9:b2:a4:ee:cf:0e:f2:09:88:e5:
         3a:ce:a3:6f:cb:28:a4:b9:78:2a:72:c8:19:83:f3:4c:e1:33:
         1f:dc:a7:43:70:d4:49:ea:6b:d1:a5:50:54:60:56:16:9e:cf:
         5c:4f:34:53:84:59:53:06:46:97:4e:f1:08:8e:da:4a:6a:97:
         d3:3f:20:a1:8b:5a:84:11:b7:2e:39:a3:e3:92:71:ce:d4:b2:
         24:18:f7:a7:4b:1d:c0:e6:cc:3b:57:16:ad:67:a7:6c:96:02:
         af:e4:c3:9a:e0:7d:13:10:7c:28:99:be:de:6b:40:de:a6:b7:
         3d:a0:1c:1d:b6:67:72:4b:6b:f4:35:45:46:d6:49:1c:c9:46:
         2f:c4:75:84:93:e4:8c:77:2a:8c:08:e9:2e:c9:94:f6:3f:47:
         ec:dd:3a:47:7c:ea:9c:42:ce:c5:6b:a0:68:2d:eb:43:6f:28:
         ac:7e:2c:c8:95:b5:4e:b7:e0:ed:d0:12:cd:62:c3:0d:23:5a:
         ed:13:5a:6e:81:88:c5:23:3f:26:60:43:c9:9f:f5:fc:e0:bd:
         80:de:81:15
-----BEGIN CERTIFICATE-----
MIID3DCCAsSgAwIBAgIDDig3MA0GCSqGSIb3DQEBCwUAMB0xGzAZBgNVBAMMEndl
Yi1wbGF0Zm9ybS10ZXN0czAeFw0xNzA4MDQwNDU3MzFaFw0xNzA5MDMwNDU3MzFa
MBwxGjAYBgNVBAMTEXdlYi1wbGF0Zm9ybS50ZXN0MIIBIjANBgkqhkiG9w0BAQEF
AAOCAQ8AMIIBCgKCAQEAn46WtoM1/SoRnmwa0uAOfGCklqCxSnK7FLqpuP0+tj0a
vT/tz55R+drqYK7TZLv4bVtx/oKyCYayiKYXYpHp03aD0kE0DtA4Jw2kFlDAqNCI
434/M+AzXT4CujHZdPD1BJGMa71fc2Km2rEjutnmbGSGPSEcZnU9+/8qljSUsv/i
5TovdqT6eqShTA40e2fWNufYrvZ+JVaG8TzAX+x5Xr08Is8E0UFLOThzSgaJbCKF
rMu4P37ysO1beXKJs6QMiVZldySOB/4rFoFCVUVSEp6pyJk5vr1quJ6XPuOyEDwF
UP849+FOHF+HCyXVZYFNS+YhU4NegiYUc0z/khS7OwIDAQABo4IBJDCCASAwCQYD
VR0TBAIwADAdBgNVHQ4EFgQUqC94IokTex8CoU8iEZ5V3P9e08owHwYDVR0jBBgw
FoAUPEPSyn+0ENbCp5/VB1ad24KmRK0wCwYDVR0PBAQDAgXgMBMGA1UdJQQMMAoG
CCsGAQUFBwMBMIGwBgNVHREEgagwgaWCEXdlYi1wbGF0Zm9ybS50ZXN0ghV3d3cu
d2ViLXBsYXRmb3JtLnRlc3SCKXhuLS1uOGo2ZHM1M2x3d2tycWh2MjhhLndlYi1w
bGF0Zm9ybS50ZXN0gh54bi0tbHZlLTZsYWQud2ViLXBsYXRmb3JtLnRlc3SCFnd3
dzEud2ViLXBsYXRmb3JtLnRlc3SCFnd3dzIud2ViLXBsYXRmb3JtLnRlc3QwDQYJ
KoZIhvcNAQELBQADggEBAGubpb/+Qgj0hhpOyAv/+U2xo+Im/kKEpIv1FfeRHoAj
oKz1sX745f5zZ1EUubKk7s8O8gmI5TrOo2/LKKS5eCpyyBmD80zhMx/cp0Nw1Enq
a9GlUFRgVhaez1xPNFOEWVMGRpdO8QiO2kpql9M/IKGLWoQRty45o+OScc7UsiQY
96dLHcDmzDtXFq1np2yWAq/kw5rgfRMQfCiZvt5rQN6mtz2gHB22Z3JLa/Q1RUbW
SRzJRi/EdYST5Ix3KowI6S7JlPY/R+zdOkd86pxCzsVroGgt60NvKKx+LMiVtU63
4O3QEs1iww0jWu0TWm6BiMUjPyZgQ8mf9fzgvYDegRU=
-----END CERTIFICATE-----
