Certificate:
    Data:
        Version: 3 (0x2)
        Serial Number: 215695 (0x34a8f)
    Signature Algorithm: sha256WithRSAEncryption
        Issuer: CN=web-platform-tests
        Validity
            Not Before: Aug  4 06:35:20 2017 GMT
            Not After : Sep  3 06:35:20 2017 GMT
        Subject: CN=www1.web-platform.test
        Subject Public Key Info:
            Public Key Algorithm: rsaEncryption
                Public-Key: (2048 bit)
                Modulus:
                    00:a4:71:b5:9b:7a:70:41:56:73:83:0e:fa:6b:1d:
                    b6:69:51:13:a1:f0:d1:82:1f:13:69:d9:ed:14:68:
                    9b:d0:3c:43:38:b6:e8:e2:c6:34:de:8e:73:4e:72:
                    f4:a5:13:56:6a:de:74:de:31:27:5e:00:4e:ce:d0:
                    b4:d3:7f:dc:1b:20:b5:a1:ce:a1:a0:6a:ec:49:72:
                    58:3f:c5:fb:5a:d4:97:25:c9:6b:3a:6f:83:ad:ad:
                    2b:92:8a:a8:3c:23:78:20:09:47:3e:a2:c1:bc:d5:
                    9b:6e:f9:09:95:ac:44:1a:24:97:d5:42:c6:11:fa:
                    fc:17:74:4d:c8:43:32:2d:9d:72:15:2e:0e:ee:4d:
                    35:cf:d1:0e:22:85:14:51:ef:23:75:24:56:69:26:
                    91:49:20:28:d6:3c:3b:5f:c1:bc:94:ab:1a:01:20:
                    2d:73:5f:bc:11:da:1a:69:55:f0:1d:f7:27:a2:49:
                    18:09:93:8a:bb:b7:06:1c:8d:e9:79:d6:dc:14:f4:
                    b2:10:8d:6d:ae:9b:af:cb:bf:bb:5f:51:ec:0a:0a:
                    e3:df:2d:80:2b:fa:f9:5f:c7:b7:b5:63:8d:df:19:
                    65:a9:4c:14:09:95:e0:59:a8:5d:82:7a:35:b4:78:
                    15:17:47:d2:77:c1:13:62:7c:df:3f:d9:62:8a:b9:
                    26:fb
                Exponent: 65537 (0x10001)
        X509v3 extensions:
            X509v3 Basic Constraints: 
                CA:FALSE
            X509v3 Subject Key Identifier: 
                4B:D2:09:67:9E:4A:64:50:46:7F:FA:02:0F:D2:5A:F7:7A:95:1C:5B
            X509v3 Authority Key Identifier: 
                keyid:DA:A3:2F:F4:09:10:47:47:42:53:17:1A:BE:DE:3A:49:62:2C:1F:36

            X509v3 Key Usage: 
                Digital Signature, Non Repudiation, Key Encipherment
            X509v3 Extended Key Usage: 
                TLS Web Server Authentication
            X509v3 Subject Alternative Name: 
                DNS:www1.web-platform.test, DNS:web-platform.test, DNS:www2.web-platform.test, DNS:xn--lve-6lad.web-platform.test, DNS:www.web-platform.test, DNS:xn--n8j6ds53lwwkrqhv28a.web-platform.test
    Signature Algorithm: sha256WithRSAEncryption
         c0:86:bd:29:c0:c5:9c:d0:35:5b:f9:39:9b:8b:e8:3f:bf:06:
         98:15:3e:b6:d6:82:aa:1d:a7:75:cc:d9:97:0b:26:c9:92:81:
         fc:fd:24:fe:93:1c:e6:2d:f1:40:d7:53:d7:2f:34:a6:3d:b6:
         be:a8:c6:ae:3f:4f:f9:16:98:2d:f0:ab:87:a8:9f:14:fb:f4:
         b9:ef:05:d5:21:71:03:22:16:cd:81:23:b4:93:04:10:05:37:
         44:b7:08:16:a7:a8:f5:51:85:a1:0f:a6:bc:d7:61:ec:30:fc:
         f7:18:92:51:05:60:a0:28:4a:80:68:53:c2:dc:0a:b9:8e:4e:
         f7:91:86:56:3e:01:4f:d6:49:eb:35:3e:67:51:a2:e8:57:74:
         ca:3e:10:6f:4c:6e:7e:15:27:33:c4:82:62:56:2b:b0:c5:63:
         71:9e:f0:26:bf:a0:9f:07:b0:89:81:99:33:cc:6e:b4:fe:32:
         94:9a:48:7b:a2:96:93:5d:15:28:88:08:10:d6:06:5c:72:43:
         8f:61:f0:4d:78:27:26:dc:fc:9b:8f:3b:e2:82:47:b2:ca:ba:
         2a:36:3b:2c:e5:10:3e:ef:7b:cd:45:34:3e:72:f2:db:b7:fb:
         86:73:23:50:5e:d1:98:96:e7:8f:58:ad:4f:87:a5:ec:e6:54:
         0d:ee:5d:56
-----BEGIN CERTIFICATE-----
MIID4TCCAsmgAwIBAgIDA0qPMA0GCSqGSIb3DQEBCwUAMB0xGzAZBgNVBAMMEndl
Yi1wbGF0Zm9ybS10ZXN0czAeFw0xNzA4MDQwNjM1MjBaFw0xNzA5MDMwNjM1MjBa
MCExHzAdBgNVBAMTFnd3dzEud2ViLXBsYXRmb3JtLnRlc3QwggEiMA0GCSqGSIb3
DQEBAQUAA4IBDwAwggEKAoIBAQCkcbWbenBBVnODDvprHbZpUROh8NGCHxNp2e0U
aJvQPEM4tujixjTejnNOcvSlE1Zq3nTeMSdeAE7O0LTTf9wbILWhzqGgauxJclg/
xfta1JclyWs6b4OtrSuSiqg8I3ggCUc+osG81Ztu+QmVrEQaJJfVQsYR+vwXdE3I
QzItnXIVLg7uTTXP0Q4ihRRR7yN1JFZpJpFJICjWPDtfwbyUqxoBIC1zX7wR2hpp
VfAd9yeiSRgJk4q7twYcjel51twU9LIQjW2um6/Lv7tfUewKCuPfLYAr+vlfx7e1
Y43fGWWpTBQJleBZqF2CejW0eBUXR9J3wRNifN8/2WKKuSb7AgMBAAGjggEkMIIB
IDAJBgNVHRMEAjAAMB0GA1UdDgQWBBRL0glnnkpkUEZ/+gIP0lr3epUcWzAfBgNV
HSMEGDAWgBTaoy/0CRBHR0JTFxq+3jpJYiwfNjALBgNVHQ8EBAMCBeAwEwYDVR0l
BAwwCgYIKwYBBQUHAwEwgbAGA1UdEQSBqDCBpYIWd3d3MS53ZWItcGxhdGZvcm0u
dGVzdIIRd2ViLXBsYXRmb3JtLnRlc3SCFnd3dzIud2ViLXBsYXRmb3JtLnRlc3SC
HnhuLS1sdmUtNmxhZC53ZWItcGxhdGZvcm0udGVzdIIVd3d3LndlYi1wbGF0Zm9y
bS50ZXN0gil4bi0tbjhqNmRzNTNsd3drcnFodjI4YS53ZWItcGxhdGZvcm0udGVz
dDANBgkqhkiG9w0BAQsFAAOCAQEAwIa9KcDFnNA1W/k5m4voP78GmBU+ttaCqh2n
dczZlwsmyZKB/P0k/pMc5i3xQNdT1y80pj22vqjGrj9P+RaYLfCrh6ifFPv0ue8F
1SFxAyIWzYEjtJMEEAU3RLcIFqeo9VGFoQ+mvNdh7DD89xiSUQVgoChKgGhTwtwK
uY5O95GGVj4BT9ZJ6zU+Z1Gi6Fd0yj4Qb0xufhUnM8SCYlYrsMVjcZ7wJr+gnwew
iYGZM8xutP4ylJpIe6KWk10VKIgIENYGXHJDj2HwTXgnJtz8m4874oJHssq6KjY7
LOUQPu97zUU0PnLy27f7hnMjUF7RmJbnj1itT4el7OZUDe5dVg==
-----END CERTIFICATE-----
