Certificate:
    Data:
        Version: 3 (0x2)
        Serial Number: 368506 (0x59f7a)
    Signature Algorithm: sha256WithRSAEncryption
        Issuer: CN=web-platform-tests
        Validity
            Not Before: Aug  4 06:35:54 2017 GMT
            Not After : Sep  3 06:35:54 2017 GMT
        Subject: CN=www2.web-platform.test
        Subject Public Key Info:
            Public Key Algorithm: rsaEncryption
                Public-Key: (2048 bit)
                Modulus:
                    00:bf:39:56:90:43:6c:73:e3:8a:f4:d1:ea:76:82:
                    c6:83:39:94:32:83:01:e6:67:1d:47:ae:c4:75:8c:
                    3c:1b:11:83:cf:db:e2:f1:59:70:8c:2c:54:72:03:
                    6f:58:30:dd:9f:6b:ce:37:f7:88:ef:bc:7c:32:bc:
                    d6:85:ca:ca:15:b5:7a:57:55:d4:00:92:c9:dc:8b:
                    31:90:da:c2:b3:ef:5d:22:b4:30:89:5f:c8:6b:b6:
                    94:f6:d6:c9:04:4a:c3:98:28:99:af:ce:90:75:62:
                    36:e8:6a:42:0b:89:43:35:b8:89:cb:cf:ed:df:4e:
                    a7:e5:a0:11:fc:34:b6:bb:b9:c2:c5:b9:39:76:fd:
                    d9:56:c9:81:d8:52:bf:d5:a3:d5:5b:dd:8f:a7:8e:
                    00:04:4d:4f:4e:d1:88:05:06:ec:da:db:c3:7a:7e:
                    da:77:d1:5e:76:8b:07:d6:7b:d2:89:cc:55:f8:d2:
                    76:bd:d1:60:a1:e4:1c:99:df:25:58:ce:54:8a:02:
                    32:ec:5b:e1:f8:e6:c3:5e:ae:11:21:56:ba:88:86:
                    b8:9e:39:42:fe:16:4e:3c:85:6d:08:0f:d3:25:3e:
                    ec:df:63:5b:9d:a9:06:d3:9d:16:7b:54:0d:23:be:
                    e9:3a:44:cb:98:d1:0f:2d:e5:07:46:93:82:70:01:
                    bd:1b
                Exponent: 65537 (0x10001)
        X509v3 extensions:
            X509v3 Basic Constraints: 
                CA:FALSE
            X509v3 Subject Key Identifier: 
                6F:81:E3:14:74:45:CD:EA:31:F6:25:D8:D1:3A:C3:7E:8E:54:32:76
            X509v3 Authority Key Identifier: 
                keyid:45:56:10:47:51:67:DE:93:94:A7:05:F1:E2:1E:96:81:AF:A2:B8:3A

            X509v3 Key Usage: 
                Digital Signature, Non Repudiation, Key Encipherment
            X509v3 Extended Key Usage: 
                TLS Web Server Authentication
            X509v3 Subject Alternative Name: 
                DNS:www2.web-platform.test, DNS:web-platform.test, DNS:xn--lve-6lad.web-platform.test, DNS:www1.web-platform.test, DNS:www.web-platform.test, DNS:xn--n8j6ds53lwwkrqhv28a.web-platform.test
    Signature Algorithm: sha256WithRSAEncryption
         99:5d:17:fe:c2:c5:15:47:6d:df:05:73:4b:9a:24:e0:7a:60:
         25:95:63:7d:e8:1d:0b:fe:3c:e0:33:fe:d4:e3:25:60:3b:15:
         8d:48:67:9f:13:f1:2e:db:42:4f:71:a1:dc:45:69:35:02:ce:
         be:1f:e8:18:84:0a:1a:52:2d:c6:ed:8d:33:9d:6a:2c:5d:47:
         b9:21:1d:3c:68:f5:16:31:87:db:71:08:94:ee:e0:3a:43:e0:
         cc:f4:c5:32:8b:9c:e7:80:52:26:f2:61:0b:9f:be:3c:4c:70:
         af:3a:28:f4:64:76:0e:41:63:1a:ec:ca:16:71:40:a6:11:28:
         36:ab:ce:c4:b5:4b:d7:d8:40:8f:99:6f:4b:3c:f9:b9:0d:7d:
         be:cc:22:60:07:73:e9:74:8d:0e:ff:bf:f6:f8:2b:32:be:7b:
         4c:18:a8:08:c1:ce:e9:21:93:91:7f:96:2d:c3:ec:ae:1b:be:
         ef:2e:c4:fb:41:b8:74:a4:32:1d:35:ac:cb:e9:25:fe:3c:7f:
         7b:f0:a8:f2:cc:15:53:fd:72:d1:77:f5:e3:ee:01:6c:c3:b4:
         8b:dc:56:e7:38:1b:c5:24:e3:9b:1d:9c:5f:a0:50:3c:be:6a:
         b8:d9:14:85:03:52:a3:f7:a4:de:ff:11:60:02:e0:3a:e2:89:
         ce:ca:e5:77
-----BEGIN CERTIFICATE-----
MIID4TCCAsmgAwIBAgIDBZ96MA0GCSqGSIb3DQEBCwUAMB0xGzAZBgNVBAMMEndl
Yi1wbGF0Zm9ybS10ZXN0czAeFw0xNzA4MDQwNjM1NTRaFw0xNzA5MDMwNjM1NTRa
MCExHzAdBgNVBAMTFnd3dzIud2ViLXBsYXRmb3JtLnRlc3QwggEiMA0GCSqGSIb3
DQEBAQUAA4IBDwAwggEKAoIBAQC/OVaQQ2xz44r00ep2gsaDOZQygwHmZx1HrsR1
jDwbEYPP2+LxWXCMLFRyA29YMN2fa84394jvvHwyvNaFysoVtXpXVdQAksncizGQ
2sKz710itDCJX8hrtpT21skESsOYKJmvzpB1YjboakILiUM1uInLz+3fTqfloBH8
NLa7ucLFuTl2/dlWyYHYUr/Vo9Vb3Y+njgAETU9O0YgFBuza28N6ftp30V52iwfW
e9KJzFX40na90WCh5ByZ3yVYzlSKAjLsW+H45sNerhEhVrqIhrieOUL+Fk48hW0I
D9MlPuzfY1udqQbTnRZ7VA0jvuk6RMuY0Q8t5QdGk4JwAb0bAgMBAAGjggEkMIIB
IDAJBgNVHRMEAjAAMB0GA1UdDgQWBBRvgeMUdEXN6jH2JdjROsN+jlQydjAfBgNV
HSMEGDAWgBRFVhBHUWfek5SnBfHiHpaBr6K4OjALBgNVHQ8EBAMCBeAwEwYDVR0l
BAwwCgYIKwYBBQUHAwEwgbAGA1UdEQSBqDCBpYIWd3d3Mi53ZWItcGxhdGZvcm0u
dGVzdIIRd2ViLXBsYXRmb3JtLnRlc3SCHnhuLS1sdmUtNmxhZC53ZWItcGxhdGZv
cm0udGVzdIIWd3d3MS53ZWItcGxhdGZvcm0udGVzdIIVd3d3LndlYi1wbGF0Zm9y
bS50ZXN0gil4bi0tbjhqNmRzNTNsd3drcnFodjI4YS53ZWItcGxhdGZvcm0udGVz
dDANBgkqhkiG9w0BAQsFAAOCAQEAmV0X/sLFFUdt3wVzS5ok4HpgJZVjfegdC/48
4DP+1OMlYDsVjUhnnxPxLttCT3Gh3EVpNQLOvh/oGIQKGlItxu2NM51qLF1HuSEd
PGj1FjGH23EIlO7gOkPgzPTFMouc54BSJvJhC5++PExwrzoo9GR2DkFjGuzKFnFA
phEoNqvOxLVL19hAj5lvSzz5uQ19vswiYAdz6XSNDv+/9vgrMr57TBioCMHO6SGT
kX+WLcPsrhu+7y7E+0G4dKQyHTWsy+kl/jx/e/Co8swVU/1y0Xf14+4BbMO0i9xW
5zgbxSTjmx2cX6BQPL5quNkUhQNSo/ek3v8RYALgOuKJzsrldw==
-----END CERTIFICATE-----
